; Function Attrs: mustprogress nounwind uwtable
define noundef zeroext i1 @_ZN11float_csr_t14unlogged_writeEm(ptr noundef nonnull align 8 dereferenceable(56) %0, i64 noundef %1) unnamed_addr #7 align 2 personality ptr @__gxx_personality_v0 {
  %3 = getelementptr inbounds nuw i8, ptr %0, i64 8
  %4 = load ptr, ptr %3, align 8, !tbaa !6
  %5 = getelementptr inbounds nuw i8, ptr %4, i64 4312
  %.sink.i = load i64, ptr %5, align 8, !tbaa !96
  %.0.i.not = icmp sgt i64 %.sink.i, -1
  br i1 %.0.i.not, label %6, label %11

6:                                                ; preds = %2
  %7 = getelementptr inbounds nuw i8, ptr %0, i64 16
  %8 = load ptr, ptr %7, align 8, !tbaa !15
  %9 = getelementptr inbounds nuw i8, ptr %8, i64 1928
  %10 = load ptr, ptr %9, align 8, !tbaa !264
  invoke void @_ZN13sstatus_csr_t5dirtyEm(ptr noundef nonnull align 8 dereferenceable(104) %10, i64 noundef 24576)
          to label %11 unwind label %23

11:                                               ; preds = %6, %2
  %12 = load ptr, ptr %0, align 8, !tbaa !3
  %13 = getelementptr inbounds nuw i8, ptr %12, i64 8
  %14 = load ptr, ptr %13, align 8
  %15 = tail call noundef i64 %14(ptr noundef nonnull align 8 dereferenceable(56) %0) #30
  %16 = getelementptr inbounds nuw i8, ptr %0, i64 48
  %17 = load i64, ptr %16, align 8, !tbaa !228
  %18 = xor i64 %17, -1
  %19 = and i64 %15, %18
  %20 = and i64 %17, %1
  %21 = or i64 %19, %20
  %22 = getelementptr inbounds nuw i8, ptr %0, i64 40
  store i64 %21, ptr %22, align 8, !tbaa !159
  ret i1 true

23:                                               ; preds = %6
  %24 = landingpad { ptr, i32 }
          catch ptr null
  %25 = extractvalue { ptr, i32 } %24, 0
  tail call void @__clang_call_terminate(ptr %25) #32
  unreachable
}